Certificate:
    Data:
        Version: 3 (0x2)
        Serial Number: 3 (0x3)
    Signature Algorithm: sha256WithRSAEncryption
        Issuer: C=US, ST=CA, L=Fremont, O=CloudAwan, OU=RD, CN=Kubernetes/emailAddress=cloudycchang@gmail.com
        Validity
            Not Before: Jul 24 02:27:11 2015 GMT
            Not After : Jul 23 02:27:11 2016 GMT
        Subject: C=US, ST=CA, O=CloudAwan, OU=RD, CN=development/emailAddress=cloudycchang@gmail.com
        Subject Public Key Info:
            Public Key Algorithm: rsaEncryption
                Public-Key: (2048 bit)
                Modulus:
                    00:c0:9c:07:b9:bb:f2:b0:6d:4f:98:fb:b4:6c:78:
                    b5:7a:c6:2a:a2:2a:15:fb:87:12:c2:c8:01:8c:03:
                    77:a2:c7:7a:23:45:33:88:58:af:ed:7b:e8:dc:ac:
                    bb:7d:04:79:bd:17:74:10:69:3b:00:cf:42:05:52:
                    91:b0:f3:93:96:19:f1:32:d5:da:db:f4:97:d7:79:
                    32:e6:26:db:e3:09:18:b1:eb:8a:0c:13:89:74:bb:
                    0d:1d:23:e2:e9:98:fd:8f:0d:28:e5:c9:95:2f:de:
                    ce:0d:50:f2:3e:82:a3:83:9d:11:8e:3f:50:13:c8:
                    14:01:6d:c3:39:80:f6:0a:70:89:0d:44:2d:56:f2:
                    e5:3a:59:fb:18:84:ee:72:6c:eb:7b:df:2e:8e:0a:
                    85:94:eb:ae:0b:e3:0d:95:b5:ca:d1:1b:57:3b:63:
                    75:35:2e:0e:58:4c:46:d6:a1:75:52:4e:aa:c8:18:
                    28:99:ff:9f:41:4a:37:f0:8f:44:d0:3a:63:f8:ef:
                    c9:4b:d6:23:8f:3d:8f:c4:b6:03:86:3c:13:cd:cb:
                    83:fb:49:ce:0a:55:7d:63:9e:df:01:d6:b0:3e:71:
                    6a:36:4c:54:87:32:b6:59:7f:24:79:47:fe:52:b6:
                    db:ea:0c:de:1e:94:ba:e1:f4:e9:98:e3:40:07:30:
                    5c:1f
                Exponent: 65537 (0x10001)
        X509v3 extensions:
            X509v3 Basic Constraints: 
                CA:FALSE
            Netscape Comment: 
                OpenSSL Generated Certificate
            X509v3 Subject Key Identifier: 
                FD:8D:CB:B2:3A:C6:51:50:B8:6B:49:0C:43:EE:A1:2C:FC:CD:98:EC
            X509v3 Authority Key Identifier: 
                keyid:88:EB:DA:2D:92:FA:C1:24:9D:45:CD:3F:50:71:7B:E8:B0:FD:3F:A9

    Signature Algorithm: sha256WithRSAEncryption
         23:cb:62:3f:58:9b:50:98:8c:05:84:ad:d1:0a:b5:b6:ad:9a:
         4b:00:36:87:e3:0d:0a:91:18:fa:25:40:6c:b6:26:5b:3b:28:
         be:26:50:08:bf:c5:d5:15:4d:5e:2f:28:d2:f1:e5:24:ad:da:
         ae:04:19:3e:be:28:2e:b5:b1:f5:0e:1e:47:7d:42:39:22:44:
         1c:de:15:03:c4:82:cd:03:02:d0:7f:2c:99:c2:86:58:e0:b7:
         06:49:b2:36:da:a5:2d:67:ed:0f:c8:54:79:43:0a:c1:e3:31:
         5a:5e:1f:ec:80:96:17:47:68:35:f4:d5:b4:b8:91:05:bd:40:
         44:09:31:71:a8:19:9b:43:89:86:8b:d2:35:65:52:86:d7:cc:
         6d:16:ce:53:bf:90:65:41:15:9f:00:3f:a4:c4:34:1a:03:af:
         95:b9:eb:31:9f:f8:33:23:7e:22:6f:0a:53:d2:68:94:71:a0:
         af:a6:9c:14:5a:46:cd:c9:fa:df:33:be:52:08:2b:79:79:1b:
         36:c1:7d:bc:07:6e:94:2d:22:4b:90:ad:5e:b9:42:8c:28:0f:
         54:98:59:7e:02:b3:4f:8d:76:e1:0d:28:b5:d1:06:f2:18:03:
         d7:39:3a:0d:50:6f:82:42:df:07:36:46:45:fb:fa:df:fd:25:
         b3:65:3e:d2
-----BEGIN CERTIFICATE-----
MIID+DCCAuCgAwIBAgIBAzANBgkqhkiG9w0BAQsFADCBiTELMAkGA1UEBhMCVVMx
CzAJBgNVBAgMAkNBMRAwDgYDVQQHDAdGcmVtb250MRIwEAYDVQQKDAlDbG91ZEF3
YW4xCzAJBgNVBAsMAlJEMRMwEQYDVQQDDApLdWJlcm5ldGVzMSUwIwYJKoZIhvcN
AQkBFhZjbG91ZHljY2hhbmdAZ21haWwuY29tMB4XDTE1MDcyNDAyMjcxMVoXDTE2
MDcyMzAyMjcxMVoweDELMAkGA1UEBhMCVVMxCzAJBgNVBAgMAkNBMRIwEAYDVQQK
DAlDbG91ZEF3YW4xCzAJBgNVBAsMAlJEMRQwEgYDVQQDDAtkZXZlbG9wbWVudDEl
MCMGCSqGSIb3DQEJARYWY2xvdWR5Y2NoYW5nQGdtYWlsLmNvbTCCASIwDQYJKoZI
hvcNAQEBBQADggEPADCCAQoCggEBAMCcB7m78rBtT5j7tGx4tXrGKqIqFfuHEsLI
AYwDd6LHeiNFM4hYr+176Nysu30Eeb0XdBBpOwDPQgVSkbDzk5YZ8TLV2tv0l9d5
MuYm2+MJGLHrigwTiXS7DR0j4umY/Y8NKOXJlS/ezg1Q8j6Co4OdEY4/UBPIFAFt
wzmA9gpwiQ1ELVby5TpZ+xiE7nJs63vfLo4KhZTrrgvjDZW1ytEbVztjdTUuDlhM
RtahdVJOqsgYKJn/n0FKN/CPRNA6Y/jvyUvWI489j8S2A4Y8E83Lg/tJzgpVfWOe
3wHWsD5xajZMVIcytll/JHlH/lK22+oM3h6UuuH06ZjjQAcwXB8CAwEAAaN7MHkw
CQYDVR0TBAIwADAsBglghkgBhvhCAQ0EHxYdT3BlblNTTCBHZW5lcmF0ZWQgQ2Vy
dGlmaWNhdGUwHQYDVR0OBBYEFP2Ny7I6xlFQuGtJDEPuoSz8zZjsMB8GA1UdIwQY
MBaAFIjr2i2S+sEknUXNP1Bxe+iw/T+pMA0GCSqGSIb3DQEBCwUAA4IBAQAjy2I/
WJtQmIwFhK3RCrW2rZpLADaH4w0KkRj6JUBstiZbOyi+JlAIv8XVFU1eLyjS8eUk
rdquBBk+vigutbH1Dh5HfUI5IkQc3hUDxILNAwLQfyyZwoZY4LcGSbI22qUtZ+0P
yFR5QwrB4zFaXh/sgJYXR2g19NW0uJEFvUBECTFxqBmbQ4mGi9I1ZVKG18xtFs5T
v5BlQRWfAD+kxDQaA6+Vuesxn/gzI34ibwpT0miUcaCvppwUWkbNyfrfM75SCCt5
eRs2wX28B26ULSJLkK1euUKMKA9UmFl+ArNPjXbhDSi10QbyGAPXOToNUG+CQt8H
NkZF+/rf/SWzZT7S
-----END CERTIFICATE-----
